; Function Attrs: nounwind uwtable
define void @Abc_NtkRestrashRandom_rec(ptr noundef %0, ptr noundef captures(none) %1) local_unnamed_addr #0 {
  %.val2.i = load ptr, ptr %1, align 8
  %3 = getelementptr i8, ptr %1, i64 16
  %.val3.i = load i32, ptr %3, align 8
  %4 = getelementptr inbounds nuw i8, ptr %.val2.i, i64 224
  %5 = add nsw i32 %.val3.i, 1
  tail call fastcc void @Vec_IntFillExtra(ptr noundef nonnull %4, i32 noundef %5)
  %6 = getelementptr i8, ptr %.val2.i, i64 232
  %.val.i.i.i = load ptr, ptr %6, align 8
  %7 = sext i32 %.val3.i to i64
  %8 = getelementptr inbounds i32, ptr %.val.i.i.i, i64 %7
  %9 = load i32, ptr %8, align 4
  %.val.i = load ptr, ptr %1, align 8
  %10 = getelementptr inbounds nuw i8, ptr %.val.i, i64 216
  %11 = load i32, ptr %10, align 8
  %.not = icmp eq i32 %9, %11
  br i1 %.not, label %common.ret, label %12

12:                                               ; preds = %2
  %.val25 = load i32, ptr %3, align 8
  %13 = getelementptr inbounds nuw i8, ptr %.val.i, i64 224
  %14 = add nsw i32 %.val25, 1
  tail call fastcc void @Vec_IntFillExtra(ptr noundef nonnull %13, i32 noundef %14)
  %15 = getelementptr i8, ptr %.val.i, i64 232
  %.val.i.i.i27 = load ptr, ptr %15, align 8
  %16 = sext i32 %.val25 to i64
  %17 = getelementptr inbounds i32, ptr %.val.i.i.i27, i64 %16
  store i32 %11, ptr %17, align 4
  %18 = getelementptr i8, ptr %1, i64 20
  %.val26 = load i32, ptr %18, align 4
  %19 = and i32 %.val26, 15
  %.not37 = icmp eq i32 %19, 7
  br i1 %.not37, label %20, label %common.ret

20:                                               ; preds = %12
  %21 = tail call i32 @rand() #11
  %22 = and i32 %21, 1
  %.not16 = icmp eq i32 %22, 0
  %.val22 = load ptr, ptr %1, align 8
  %23 = getelementptr i8, ptr %1, i64 32
  %.val23 = load ptr, ptr %23, align 8
  %24 = getelementptr i8, ptr %.val22, i64 32
  %.val22.val = load ptr, ptr %24, align 8
  br i1 %.not16, label %31, label %25

25:                                               ; preds = %20
  %.val17.val = load i32, ptr %.val23, align 4
  %26 = getelementptr i8, ptr %.val22.val, i64 8
  %.val.val.val = load ptr, ptr %26, align 8
  %27 = sext i32 %.val17.val to i64
  %28 = getelementptr inbounds ptr, ptr %.val.val.val, i64 %27
  %29 = load ptr, ptr %28, align 8
  tail call void @Abc_NtkRestrashRandom_rec(ptr noundef %0, ptr noundef %29)
  %.val21 = load ptr, ptr %23, align 8
  %30 = getelementptr i8, ptr %.val21, i64 4
  br label %37

31:                                               ; preds = %20
  %32 = getelementptr i8, ptr %.val23, i64 4
  %.val23.val = load i32, ptr %32, align 4
  %33 = getelementptr i8, ptr %.val22.val, i64 8
  %.val22.val.val = load ptr, ptr %33, align 8
  %34 = sext i32 %.val23.val to i64
  %35 = getelementptr inbounds ptr, ptr %.val22.val.val, i64 %34
  %36 = load ptr, ptr %35, align 8
  tail call void @Abc_NtkRestrashRandom_rec(ptr noundef %0, ptr noundef %36)
  %.val19 = load ptr, ptr %23, align 8
  br label %37

common.ret:                                       ; preds = %2, %12, %37
  ret void

37:                                               ; preds = %31, %25
  %.val19.val.sink.in = phi ptr [ %.val19, %31 ], [ %30, %25 ]
  %.val19.val.sink = load i32, ptr %.val19.val.sink.in, align 4
  %.val18.pn = load ptr, ptr %1, align 8
  %.val18.val.sink.in = getelementptr i8, ptr %.val18.pn, i64 32
  %.val18.val.sink = load ptr, ptr %.val18.val.sink.in, align 8
  %38 = getelementptr i8, ptr %.val18.val.sink, i64 8
  %.val18.val.val = load ptr, ptr %38, align 8
  %39 = sext i32 %.val19.val.sink to i64
  %40 = getelementptr inbounds ptr, ptr %.val18.val.val, i64 %39
  %41 = load ptr, ptr %40, align 8
  tail call void @Abc_NtkRestrashRandom_rec(ptr noundef %0, ptr noundef %41)
  %42 = getelementptr inbounds nuw i8, ptr %0, i64 256
  %43 = load ptr, ptr %42, align 8
  %.val.i28 = load ptr, ptr %1, align 8
  %44 = getelementptr i8, ptr %1, i64 32
  %.val2.i29 = load ptr, ptr %44, align 8
  %45 = getelementptr i8, ptr %.val.i28, i64 32
  %.val.val.i = load ptr, ptr %45, align 8
  %.val2.val.i = load i32, ptr %.val2.i29, align 4
  %46 = getelementptr i8, ptr %.val.val.i, i64 8
  %.val.val.val.i = load ptr, ptr %46, align 8
  %47 = sext i32 %.val2.val.i to i64
  %48 = getelementptr inbounds ptr, ptr %.val.val.val.i, i64 %47
  %49 = load ptr, ptr %48, align 8
  %50 = getelementptr inbounds nuw i8, ptr %49, i64 64
  %51 = load ptr, ptr %50, align 8
  %.val3.i30 = load i32, ptr %18, align 4
  %52 = lshr i32 %.val3.i30, 10
  %53 = and i32 %52, 1
  %54 = ptrtoint ptr %51 to i64
  %55 = zext nneg i32 %53 to i64
  %56 = xor i64 %55, %54
  %57 = inttoptr i64 %56 to ptr
  %58 = getelementptr i8, ptr %.val2.i29, i64 4
  %.val2.val.i34 = load i32, ptr %58, align 4
  %59 = sext i32 %.val2.val.i34 to i64
  %60 = getelementptr inbounds ptr, ptr %.val.val.val.i, i64 %59
  %61 = load ptr, ptr %60, align 8
  %62 = getelementptr inbounds nuw i8, ptr %61, i64 64
  %63 = load ptr, ptr %62, align 8
  %64 = lshr i32 %.val3.i30, 11
  %65 = and i32 %64, 1
  %66 = ptrtoint ptr %63 to i64
  %67 = zext nneg i32 %65 to i64
  %68 = xor i64 %66, %67
  %69 = inttoptr i64 %68 to ptr
  %70 = tail call ptr @Abc_AigAnd(ptr noundef %43, ptr noundef %57, ptr noundef %69) #11
  %71 = getelementptr inbounds nuw i8, ptr %1, i64 64
  store ptr %70, ptr %71, align 8
  br label %common.ret
}